; Function Attrs: nofree nosync nounwind memory(readwrite, inaccessiblemem: none) uwtable
define void @Gia_ManCheckChoices_rec(ptr noundef %0, ptr noundef %1) local_unnamed_addr #5 {
  %.not17 = icmp eq ptr %1, null
  br i1 %.not17, label %tailrecurse._crit_edge, label %.lr.ph

.lr.ph:                                           ; preds = %2
  %3 = getelementptr i8, ptr %0, i64 32
  %4 = getelementptr inbounds nuw i8, ptr %0, i64 208
  br label %5

5:                                                ; preds = %20, %.lr.ph
  %.tr1618 = phi ptr [ %1, %.lr.ph ], [ %29, %20 ]
  %.val14 = load i64, ptr %.tr1618, align 4
  %6 = and i64 %.val14, 536870911
  %7 = icmp ne i64 %6, 536870911
  %8 = and i64 %.val14, -9223372034707292160
  %9 = icmp eq i64 %8, 0
  %or.cond = and i1 %9, %7
  br i1 %or.cond, label %10, label %tailrecurse._crit_edge

10:                                               ; preds = %5
  %11 = or disjoint i64 %.val14, -9223372036854775808
  store i64 %11, ptr %.tr1618, align 4
  %12 = sub nsw i64 0, %6
  %13 = getelementptr inbounds %struct.Gia_Obj_t_, ptr %.tr1618, i64 %12
  tail call void @Gia_ManCheckChoices_rec(ptr noundef %0, ptr noundef nonnull %13)
  %14 = load i64, ptr %.tr1618, align 4
  %15 = lshr i64 %14, 32
  %16 = and i64 %15, 536870911
  %17 = sub nsw i64 0, %16
  %18 = getelementptr inbounds %struct.Gia_Obj_t_, ptr %.tr1618, i64 %17
  tail call void @Gia_ManCheckChoices_rec(ptr noundef %0, ptr noundef nonnull %18)
  %19 = load ptr, ptr %4, align 8, !tbaa !71
  %.not.i15 = icmp eq ptr %19, null
  br i1 %.not.i15, label %tailrecurse._crit_edge, label %20

20:                                               ; preds = %10
  %.val = load ptr, ptr %3, align 8, !tbaa !41
  %21 = ptrtoint ptr %.tr1618 to i64
  %22 = ptrtoint ptr %.val to i64
  %23 = sub i64 %21, %22
  %24 = sdiv exact i64 %23, 12
  %sext = shl i64 %24, 32
  %25 = ashr exact i64 %sext, 30
  %26 = getelementptr inbounds i8, ptr %19, i64 %25
  %27 = load i32, ptr %26, align 4, !tbaa !40
  %.not6.i = icmp eq i32 %27, 0
  %28 = sext i32 %27 to i64
  %29 = getelementptr inbounds %struct.Gia_Obj_t_, ptr %.val, i64 %28
  %.not = icmp eq ptr %.val, null
  %or.cond21 = or i1 %.not6.i, %.not
  br i1 %or.cond21, label %tailrecurse._crit_edge, label %5

tailrecurse._crit_edge:                           ; preds = %10, %20, %5, %2
  ret void
}